; Function Attrs: nounwind uwtable
define ptr @l_List_foldl___at_Lean_Elab_InfoTree_goalsAt_x3f___spec__14(ptr noundef %0, ptr noundef %1) local_unnamed_addr #0 {
  br label %3

3:                                                ; preds = %lean_nat_le.exit, %2
  %.010 = phi ptr [ %1, %2 ], [ %26, %lean_nat_le.exit ]
  %.0 = phi ptr [ %0, %2 ], [ %.0., %lean_nat_le.exit ]
  %4 = ptrtoint ptr %.010 to i64
  %5 = and i64 %4, 1
  %.not.i = icmp eq i64 %5, 0
  br i1 %.not.i, label %9, label %6

6:                                                ; preds = %3
  %7 = lshr i64 %4, 1
  %8 = trunc i64 %7 to i32
  br label %lean_obj_tag.exit

9:                                                ; preds = %3
  %10 = getelementptr i8, ptr %.010, i64 4
  %.val.i = load i32, ptr %10, align 4
  %11 = lshr i32 %.val.i, 24
  br label %lean_obj_tag.exit

lean_obj_tag.exit:                                ; preds = %6, %9
  %.0.i12 = phi i32 [ %8, %6 ], [ %11, %9 ]
  %12 = icmp eq i32 %.0.i12, 0
  br i1 %12, label %13, label %22

13:                                               ; preds = %lean_obj_tag.exit
  %14 = ptrtoint ptr %.0 to i64
  %15 = and i64 %14, 1
  %.not = icmp eq i64 %15, 0
  br i1 %.not, label %16, label %lean_inc.exit

16:                                               ; preds = %13
  %.val.i13 = load i32, ptr %.0, align 4, !tbaa !4
  %17 = icmp sgt i32 %.val.i13, 0
  br i1 %17, label %18, label %20, !prof !15

18:                                               ; preds = %16
  %19 = add nuw i32 %.val.i13, 1
  store i32 %19, ptr %.0, align 4, !tbaa !4
  br label %lean_inc.exit

20:                                               ; preds = %16
  %.not.i14 = icmp eq i32 %.val.i13, 0
  br i1 %.not.i14, label %lean_inc.exit, label %21

21:                                               ; preds = %20
  tail call void @lean_inc_ref_cold(ptr noundef nonnull %.0) #7
  br label %lean_inc.exit

lean_inc.exit:                                    ; preds = %21, %20, %18, %13
  ret ptr %.0

22:                                               ; preds = %lean_obj_tag.exit
  %23 = getelementptr inbounds nuw i8, ptr %.010, i64 8
  %24 = load ptr, ptr %23, align 8, !tbaa !9
  %25 = getelementptr inbounds nuw i8, ptr %.010, i64 16
  %26 = load ptr, ptr %25, align 8, !tbaa !9
  %27 = ptrtoint ptr %.0 to i64
  %28 = and i64 %27, 1
  %29 = icmp ne i64 %28, 0
  %30 = ptrtoint ptr %24 to i64
  %31 = and i64 %30, 1
  %32 = icmp ne i64 %31, 0
  %or.cond = select i1 %29, i1 %32, i1 false
  br i1 %or.cond, label %33, label %.critedge.i, !prof !18

33:                                               ; preds = %22
  %34 = icmp ule ptr %.0, %24
  br label %lean_nat_le.exit

.critedge.i:                                      ; preds = %22
  %35 = tail call zeroext i1 @lean_nat_big_le(ptr noundef %.0, ptr noundef %24) #7
  br label %lean_nat_le.exit

lean_nat_le.exit:                                 ; preds = %33, %.critedge.i
  %.0.i = phi i1 [ %34, %33 ], [ %35, %.critedge.i ]
  %.0. = select i1 %.0.i, ptr %24, ptr %.0
  br label %3
}